target datalayout = "e-m:e-p270:32:32-p271:32:32-p272:64:64-i64:64-i128:128-f80:128-n8:16:32:64-S128"
target triple = "x86_64-pc-linux-gnu"

%struct.pointf_s = type { double, double }
%struct.Agobj_s = type { %struct.Agtag_s, ptr }
%struct.Agtag_s = type { i32, i64 }
%struct.Agrec_s = type { ptr, ptr }
%struct.boxf = type { %struct.pointf_s, %struct.pointf_s }
%struct.Agraphinfo_t = type { %struct.Agrec_s, ptr, ptr, %struct.boxf, [4 x %struct.pointf_s], i8, i8, i8, i8, i32, double, double, i16, ptr, ptr, ptr, ptr, i32, ptr, ptr, ptr, ptr, i16, i16, i32, ptr, ptr, ptr, ptr, ptr, i32, ptr, ptr, %struct.nlist_t, ptr, ptr, i32, i32, i8, i8, i32, i32, i32, ptr, ptr, ptr, ptr, i8, i8, i8, i8, i8 }
%struct.nlist_t = type { ptr, i64 }

; Function Attrs: nounwind uwtable
define internal void @shiftClusters(ptr noundef %0, double %1, double %2) #0 {
  %4 = alloca %struct.pointf_s, align 8
  %5 = alloca ptr, align 8
  %6 = alloca i32, align 4
  %7 = getelementptr inbounds nuw { double, double }, ptr %4, i32 0, i32 0
  store double %1, ptr %7, align 8
  %8 = getelementptr inbounds nuw { double, double }, ptr %4, i32 0, i32 1
  store double %2, ptr %8, align 8
  store ptr %0, ptr %5, align 8, !tbaa !123
  call void @llvm.lifetime.start.p0(i64 4, ptr %6) #11
  store i32 1, ptr %6, align 4, !tbaa !45
  br label %9

9:                                                ; preds = %31, %3
  %10 = load i32, ptr %6, align 4, !tbaa !45
  %11 = load ptr, ptr %5, align 8, !tbaa !123
  %12 = getelementptr inbounds nuw %struct.Agobj_s, ptr %11, i32 0, i32 1
  %13 = load ptr, ptr %12, align 8, !tbaa !21
  %14 = getelementptr inbounds nuw %struct.Agraphinfo_t, ptr %13, i32 0, i32 24
  %15 = load i32, ptr %14, align 4, !tbaa !168
  %16 = icmp sle i32 %10, %15
  br i1 %16, label %17, label %34

17:                                               ; preds = %9
  %18 = load ptr, ptr %5, align 8, !tbaa !123
  %19 = getelementptr inbounds nuw %struct.Agobj_s, ptr %18, i32 0, i32 1
  %20 = load ptr, ptr %19, align 8, !tbaa !21
  %21 = getelementptr inbounds nuw %struct.Agraphinfo_t, ptr %20, i32 0, i32 25
  %22 = load ptr, ptr %21, align 8, !tbaa !169
  %23 = load i32, ptr %6, align 4, !tbaa !45
  %24 = sext i32 %23 to i64
  %25 = getelementptr inbounds ptr, ptr %22, i64 %24
  %26 = load ptr, ptr %25, align 8, !tbaa !123
  %27 = getelementptr inbounds nuw { double, double }, ptr %4, i32 0, i32 0
  %28 = load double, ptr %27, align 8
  %29 = getelementptr inbounds nuw { double, double }, ptr %4, i32 0, i32 1
  %30 = load double, ptr %29, align 8
  call void @shiftClusters(ptr noundef %26, double %28, double %30)
  br label %31

31:                                               ; preds = %17
  %32 = load i32, ptr %6, align 4, !tbaa !45
  %33 = add nsw i32 %32, 1
  store i32 %33, ptr %6, align 4, !tbaa !45
  br label %9, !llvm.loop !170

34:                                               ; preds = %9
  %35 = getelementptr inbounds nuw %struct.pointf_s, ptr %4, i32 0, i32 0
  %36 = load double, ptr %35, align 8, !tbaa !76
  %37 = load ptr, ptr %5, align 8, !tbaa !123
  %38 = getelementptr inbounds nuw %struct.Agobj_s, ptr %37, i32 0, i32 1
  %39 = load ptr, ptr %38, align 8, !tbaa !21
  %40 = getelementptr inbounds nuw %struct.Agraphinfo_t, ptr %39, i32 0, i32 3
  %41 = getelementptr inbounds nuw %struct.boxf, ptr %40, i32 0, i32 1
  %42 = getelementptr inbounds nuw %struct.pointf_s, ptr %41, i32 0, i32 0
  %43 = load double, ptr %42, align 8, !tbaa !171
  %44 = fsub double %43, %36
  store double %44, ptr %42, align 8, !tbaa !171
  %45 = getelementptr inbounds nuw %struct.pointf_s, ptr %4, i32 0, i32 1
  %46 = load double, ptr %45, align 8, !tbaa !78
  %47 = load ptr, ptr %5, align 8, !tbaa !123
  %48 = getelementptr inbounds nuw %struct.Agobj_s, ptr %47, i32 0, i32 1
  %49 = load ptr, ptr %48, align 8, !tbaa !21
  %50 = getelementptr inbounds nuw %struct.Agraphinfo_t, ptr %49, i32 0, i32 3
  %51 = getelementptr inbounds nuw %struct.boxf, ptr %50, i32 0, i32 1
  %52 = getelementptr inbounds nuw %struct.pointf_s, ptr %51, i32 0, i32 1
  %53 = load double, ptr %52, align 8, !tbaa !172
  %54 = fsub double %53, %46
  store double %54, ptr %52, align 8, !tbaa !172
  %55 = getelementptr inbounds nuw %struct.pointf_s, ptr %4, i32 0, i32 0
  %56 = load double, ptr %55, align 8, !tbaa !76
  %57 = load ptr, ptr %5, align 8, !tbaa !123
  %58 = getelementptr inbounds nuw %struct.Agobj_s, ptr %57, i32 0, i32 1
  %59 = load ptr, ptr %58, align 8, !tbaa !21
  %60 = getelementptr inbounds nuw %struct.Agraphinfo_t, ptr %59, i32 0, i32 3
  %61 = getelementptr inbounds nuw %struct.boxf, ptr %60, i32 0, i32 0
  %62 = getelementptr inbounds nuw %struct.pointf_s, ptr %61, i32 0, i32 0
  %63 = load double, ptr %62, align 8, !tbaa !165
  %64 = fsub double %63, %56
  store double %64, ptr %62, align 8, !tbaa !165
  %65 = getelementptr inbounds nuw %struct.pointf_s, ptr %4, i32 0, i32 1
  %66 = load double, ptr %65, align 8, !tbaa !78
  %67 = load ptr, ptr %5, align 8, !tbaa !123
  %68 = getelementptr inbounds nuw %struct.Agobj_s, ptr %67, i32 0, i32 1
  %69 = load ptr, ptr %68, align 8, !tbaa !21
  %70 = getelementptr inbounds nuw %struct.Agraphinfo_t, ptr %69, i32 0, i32 3
  %71 = getelementptr inbounds nuw %struct.boxf, ptr %70, i32 0, i32 0
  %72 = getelementptr inbounds nuw %struct.pointf_s, ptr %71, i32 0, i32 1
  %73 = load double, ptr %72, align 8, !tbaa !166
  %74 = fsub double %73, %66
  store double %74, ptr %72, align 8, !tbaa !166
  call void @llvm.lifetime.end.p0(i64 4, ptr %6) #11
  ret void
}