; Function Attrs: nofree nosync nounwind memory(readwrite, inaccessiblemem: none) uwtable
define internal fastcc void @shiftClusters(ptr noundef readonly captures(none) %0, double %1, double %2) unnamed_addr #9 {
  %4 = getelementptr inbounds nuw i8, ptr %0, i64 16
  %5 = load ptr, ptr %4, align 8, !tbaa !20
  %6 = getelementptr inbounds nuw i8, ptr %5, i64 236
  %7 = load i32, ptr %6, align 4, !tbaa !172
  %.not12 = icmp slt i32 %7, 1
  br i1 %.not12, label %._crit_edge, label %.lr.ph

.lr.ph:                                           ; preds = %3, %.lr.ph
  %indvars.iv = phi i64 [ %indvars.iv.next, %.lr.ph ], [ 1, %3 ]
  %8 = phi ptr [ %13, %.lr.ph ], [ %5, %3 ]
  %9 = getelementptr inbounds nuw i8, ptr %8, i64 240
  %10 = load ptr, ptr %9, align 8, !tbaa !173
  %11 = getelementptr inbounds nuw ptr, ptr %10, i64 %indvars.iv
  %12 = load ptr, ptr %11, align 8, !tbaa !174
  tail call fastcc void @shiftClusters(ptr noundef %12, double %1, double %2)
  %indvars.iv.next = add nuw nsw i64 %indvars.iv, 1
  %13 = load ptr, ptr %4, align 8, !tbaa !20
  %14 = getelementptr inbounds nuw i8, ptr %13, i64 236
  %15 = load i32, ptr %14, align 4, !tbaa !172
  %16 = sext i32 %15 to i64
  %.not.not = icmp slt i64 %indvars.iv, %16
  br i1 %.not.not, label %.lr.ph, label %._crit_edge, !llvm.loop !175

._crit_edge:                                      ; preds = %.lr.ph, %3
  %.lcssa = phi ptr [ %5, %3 ], [ %13, %.lr.ph ]
  %17 = getelementptr inbounds nuw i8, ptr %.lcssa, i64 48
  %18 = load double, ptr %17, align 8, !tbaa !141
  %19 = fsub double %18, %1
  store double %19, ptr %17, align 8, !tbaa !141
  %20 = getelementptr inbounds nuw i8, ptr %.lcssa, i64 56
  %21 = load double, ptr %20, align 8, !tbaa !143
  %22 = fsub double %21, %2
  store double %22, ptr %20, align 8, !tbaa !143
  %23 = getelementptr inbounds nuw i8, ptr %.lcssa, i64 32
  %24 = load double, ptr %23, align 8, !tbaa !137
  %25 = fsub double %24, %1
  store double %25, ptr %23, align 8, !tbaa !137
  %26 = getelementptr inbounds nuw i8, ptr %.lcssa, i64 40
  %27 = load double, ptr %26, align 8, !tbaa !138
  %28 = fsub double %27, %2
  store double %28, ptr %26, align 8, !tbaa !138
  ret void
}